target datalayout = "e-m:e-p270:32:32-p271:32:32-p272:64:64-i64:64-i128:128-f80:128-n8:16:32:64-S128"
target triple = "x86_64-pc-linux-gnu"

%struct.HASH_SEQ_STATUS = type { ptr, i32, ptr, i8, i32 }

@LockMethodLocalHash = internal global ptr null, align 8

; Function Attrs: nounwind uwtable
define dso_local void @LockReleaseCurrentOwner(ptr noundef %0, i32 noundef %1) #0 {
  %3 = alloca ptr, align 8
  %4 = alloca i32, align 4
  %5 = alloca %struct.HASH_SEQ_STATUS, align 8
  %6 = alloca ptr, align 8
  %7 = alloca i32, align 4
  store ptr %0, ptr %3, align 8
  store i32 %1, ptr %4, align 4
  %8 = load ptr, ptr %3, align 8
  %9 = icmp eq ptr %8, null
  br i1 %9, label %10, label %18

10:                                               ; preds = %2
  call void @llvm.lifetime.start.p0(i64 32, ptr %5) #9
  call void @llvm.lifetime.start.p0(i64 8, ptr %6) #9
  %11 = load ptr, ptr @LockMethodLocalHash, align 8
  call void @hash_seq_init(ptr noundef %5, ptr noundef %11)
  br label %12

12:                                               ; preds = %15, %10
  %13 = call ptr @hash_seq_search(ptr noundef %5)
  store ptr %13, ptr %6, align 8
  %14 = icmp ne ptr %13, null
  br i1 %14, label %15, label %17

15:                                               ; preds = %12
  %16 = load ptr, ptr %6, align 8
  call void @ReleaseLockIfHeld(ptr noundef %16, i1 noundef zeroext false)
  br label %12, !llvm.loop !38

17:                                               ; preds = %12
  call void @llvm.lifetime.end.p0(i64 8, ptr %6) #9
  call void @llvm.lifetime.end.p0(i64 32, ptr %5) #9
  br label %34

18:                                               ; preds = %2
  call void @llvm.lifetime.start.p0(i64 4, ptr %7) #9
  %19 = load i32, ptr %4, align 4
  %20 = sub i32 %19, 1
  store i32 %20, ptr %7, align 4
  br label %21

21:                                               ; preds = %30, %18
  %22 = load i32, ptr %7, align 4
  %23 = icmp sge i32 %22, 0
  br i1 %23, label %24, label %33

24:                                               ; preds = %21
  %25 = load ptr, ptr %3, align 8
  %26 = load i32, ptr %7, align 4
  %27 = sext i32 %26 to i64
  %28 = getelementptr inbounds ptr, ptr %25, i64 %27
  %29 = load ptr, ptr %28, align 8
  call void @ReleaseLockIfHeld(ptr noundef %29, i1 noundef zeroext false)
  br label %30

30:                                               ; preds = %24
  %31 = load i32, ptr %7, align 4
  %32 = add i32 %31, -1
  store i32 %32, ptr %7, align 4
  br label %21, !llvm.loop !39

33:                                               ; preds = %21
  call void @llvm.lifetime.end.p0(i64 4, ptr %7) #9
  br label %34

34:                                               ; preds = %33, %17
  ret void
}