; Function Attrs: nounwind uwtable
define dso_local void @LockReleaseCurrentOwner(ptr noundef readonly captures(address_is_null) %0, i32 noundef %1) local_unnamed_addr #0 {
  %3 = alloca %struct.HASH_SEQ_STATUS, align 8
  %4 = icmp eq ptr %0, null
  br i1 %4, label %7, label %.preheader

.preheader:                                       ; preds = %2
  %.08 = add i32 %1, -1
  %5 = icmp sgt i32 %.08, -1
  br i1 %5, label %.lr.ph.preheader, label %.loopexit

.lr.ph.preheader:                                 ; preds = %.preheader
  %6 = zext nneg i32 %.08 to i64
  br label %.lr.ph

7:                                                ; preds = %2
  call void @llvm.lifetime.start.p0(i64 32, ptr nonnull %3) #17
  %8 = load ptr, ptr @LockMethodLocalHash, align 8
  call void @hash_seq_init(ptr noundef nonnull %3, ptr noundef %8) #17
  %9 = call ptr @hash_seq_search(ptr noundef nonnull %3) #17
  %.not10 = icmp eq ptr %9, null
  br i1 %.not10, label %._crit_edge, label %.lr.ph11

.lr.ph11:                                         ; preds = %7, %.lr.ph11
  %10 = phi ptr [ %11, %.lr.ph11 ], [ %9, %7 ]
  call fastcc void @ReleaseLockIfHeld(ptr noundef nonnull %10, i1 noundef zeroext false)
  %11 = call ptr @hash_seq_search(ptr noundef nonnull %3) #17
  %.not = icmp eq ptr %11, null
  br i1 %.not, label %._crit_edge, label %.lr.ph11, !llvm.loop !32

._crit_edge:                                      ; preds = %.lr.ph11, %7
  call void @llvm.lifetime.end.p0(i64 32, ptr nonnull %3) #17
  br label %.loopexit

.lr.ph:                                           ; preds = %.lr.ph.preheader, %.lr.ph
  %indvars.iv = phi i64 [ %6, %.lr.ph.preheader ], [ %indvars.iv.next, %.lr.ph ]
  %12 = getelementptr inbounds nuw ptr, ptr %0, i64 %indvars.iv
  %13 = load ptr, ptr %12, align 8
  tail call fastcc void @ReleaseLockIfHeld(ptr noundef %13, i1 noundef zeroext false)
  %indvars.iv.next = add nsw i64 %indvars.iv, -1
  %.not13 = icmp eq i64 %indvars.iv, 0
  br i1 %.not13, label %.loopexit, label %.lr.ph, !llvm.loop !33

.loopexit:                                        ; preds = %.lr.ph, %.preheader, %._crit_edge
  ret void
}